target datalayout = "e-m:e-p270:32:32-p271:32:32-p272:64:64-i64:64-i128:128-f80:128-n8:16:32:64-S128"
target triple = "x86_64-pc-linux-gnu"

%"class.llvm::Error" = type { ptr }
%"class.llvm::codeview::DebugSymbolsSubsectionRef" = type { %"class.llvm::codeview::DebugSubsectionRef.base", %"class.llvm::VarStreamArray" }
%"class.llvm::codeview::DebugSubsectionRef.base" = type <{ ptr, i32 }>
%"class.llvm::VarStreamArray" = type { %"class.llvm::BinaryStreamRef", [4 x i8], i32 }
%"class.llvm::BinaryStreamRef" = type { %"class.llvm::BinaryStreamRefBase" }
%"class.llvm::BinaryStreamRefBase" = type { %"class.std::shared_ptr", ptr, i64, %"class.std::optional" }
%"class.std::shared_ptr" = type { %"class.std::__shared_ptr" }
%"class.std::__shared_ptr" = type { ptr, %"class.std::__shared_count" }
%"class.std::__shared_count" = type { ptr }
%"class.std::optional" = type { %"struct.std::_Optional_base" }
%"struct.std::_Optional_base" = type { %"struct.std::_Optional_payload" }
%"struct.std::_Optional_payload" = type { %"struct.std::_Optional_payload_base.base", [7 x i8] }
%"struct.std::_Optional_payload_base.base" = type <{ %"union.std::_Optional_payload_base<unsigned long>::_Storage", i8 }>
%"union.std::_Optional_payload_base<unsigned long>::_Storage" = type { i64 }
%"class.llvm::BinaryStreamReader" = type { ptr, %"class.llvm::BinaryStreamRef", i64 }
%"struct.std::_Optional_payload_base" = type <{ %"union.std::_Optional_payload_base<unsigned long>::_Storage", i8, [7 x i8] }>

; Function Attrs: mustprogress nounwind uwtable
define linkonce_odr hidden noundef nonnull align 8 dereferenceable(8) ptr @_ZNKSt22_Optional_payload_baseImE6_M_getEv(ptr noundef nonnull align 8 dereferenceable(9) %0) #0 comdat align 2 {
  %2 = alloca ptr, align 8
  store ptr %0, ptr %2, align 8
  %3 = load ptr, ptr %2, align 8
  %4 = getelementptr inbounds nuw %"struct.std::_Optional_payload_base", ptr %3, i32 0, i32 0
  ret ptr %4
}

; Function Attrs: mustprogress nounwind uwtable
define linkonce_odr hidden noundef nonnull align 8 dereferenceable(8) ptr @_ZNKSt19_Optional_base_implImSt14_Optional_baseImLb1ELb1EEE6_M_getEv(ptr noundef nonnull align 1 dereferenceable(1) %0) #0 comdat align 2 {
  %2 = alloca ptr, align 8
  store ptr %0, ptr %2, align 8
  %3 = load ptr, ptr %2, align 8
  br label %4

4:                                                ; preds = %1
  br label %5

5:                                                ; preds = %4
  %6 = getelementptr inbounds nuw %"struct.std::_Optional_base", ptr %3, i32 0, i32 0
  %7 = call noundef nonnull align 8 dereferenceable(8) ptr @_ZNKSt22_Optional_payload_baseImE6_M_getEv(ptr noundef nonnull align 8 dereferenceable(9) %6) #8
  ret ptr %7
}

; Function Attrs: mustprogress nounwind uwtable
define linkonce_odr hidden noundef zeroext i1 @_ZNKSt19_Optional_base_implImSt14_Optional_baseImLb1ELb1EEE13_M_is_engagedEv(ptr noundef nonnull align 1 dereferenceable(1) %0) #0 comdat align 2 {
  %2 = alloca ptr, align 8
  store ptr %0, ptr %2, align 8
  %3 = load ptr, ptr %2, align 8
  %4 = getelementptr inbounds nuw %"struct.std::_Optional_base", ptr %3, i32 0, i32 0
  %5 = getelementptr inbounds nuw %"struct.std::_Optional_payload_base", ptr %4, i32 0, i32 1
  %6 = load i8, ptr %5, align 8
  %7 = trunc i8 %6 to i1
  ret i1 %7
}

; Function Attrs: mustprogress nounwind uwtable
define linkonce_odr hidden noundef nonnull align 8 dereferenceable(8) ptr @_ZNKRSt8optionalImEdeEv(ptr noundef nonnull align 8 dereferenceable(16) %0) #0 comdat align 2 {
  %2 = alloca ptr, align 8
  store ptr %0, ptr %2, align 8
  %3 = load ptr, ptr %2, align 8
  %4 = call noundef nonnull align 8 dereferenceable(8) ptr @_ZNKSt19_Optional_base_implImSt14_Optional_baseImLb1ELb1EEE6_M_getEv(ptr noundef nonnull align 1 dereferenceable(1) %3) #8
  ret ptr %4
}

; Function Attrs: mustprogress nounwind uwtable
define linkonce_odr hidden noundef zeroext i1 @_ZNKSt8optionalImEcvbEv(ptr noundef nonnull align 8 dereferenceable(16) %0) #0 comdat align 2 {
  %2 = alloca ptr, align 8
  store ptr %0, ptr %2, align 8
  %3 = load ptr, ptr %2, align 8
  %4 = call noundef zeroext i1 @_ZNKSt19_Optional_base_implImSt14_Optional_baseImLb1ELb1EEE13_M_is_engagedEv(ptr noundef nonnull align 1 dereferenceable(1) %3) #8
  ret i1 %4
}

; Function Attrs: mustprogress nounwind uwtable
define linkonce_odr hidden noundef i64 @_ZNK4llvm19BinaryStreamRefBaseINS_15BinaryStreamRefENS_12BinaryStreamEE9getLengthEv(ptr noundef nonnull align 8 dereferenceable(48) %0) #0 comdat align 2 {
  %2 = alloca i64, align 8
  %3 = alloca ptr, align 8
  store ptr %0, ptr %3, align 8
  %4 = load ptr, ptr %3, align 8
  %5 = getelementptr inbounds nuw %"class.llvm::BinaryStreamRefBase", ptr %4, i32 0, i32 3
  %6 = call noundef zeroext i1 @_ZNKSt8optionalImEcvbEv(ptr noundef nonnull align 8 dereferenceable(16) %5) #8
  br i1 %6, label %7, label %11

7:                                                ; preds = %1
  %8 = getelementptr inbounds nuw %"class.llvm::BinaryStreamRefBase", ptr %4, i32 0, i32 3
  %9 = call noundef nonnull align 8 dereferenceable(8) ptr @_ZNKRSt8optionalImEdeEv(ptr noundef nonnull align 8 dereferenceable(16) %8) #8
  %10 = load i64, ptr %9, align 8
  store i64 %10, ptr %2, align 8
  br label %28

11:                                               ; preds = %1
  %12 = getelementptr inbounds nuw %"class.llvm::BinaryStreamRefBase", ptr %4, i32 0, i32 1
  %13 = load ptr, ptr %12, align 8
  %14 = icmp ne ptr %13, null
  br i1 %14, label %15, label %25

15:                                               ; preds = %11
  %16 = getelementptr inbounds nuw %"class.llvm::BinaryStreamRefBase", ptr %4, i32 0, i32 1
  %17 = load ptr, ptr %16, align 8
  %18 = load ptr, ptr %17, align 8
  %19 = getelementptr inbounds ptr, ptr %18, i64 5
  %20 = load ptr, ptr %19, align 8
  %21 = call noundef i64 %20(ptr noundef nonnull align 8 dereferenceable(8) %17)
  %22 = getelementptr inbounds nuw %"class.llvm::BinaryStreamRefBase", ptr %4, i32 0, i32 2
  %23 = load i64, ptr %22, align 8
  %24 = sub i64 %21, %23
  br label %26

25:                                               ; preds = %11
  br label %26

26:                                               ; preds = %25, %15
  %27 = phi i64 [ %24, %15 ], [ 0, %25 ]
  store i64 %27, ptr %2, align 8
  br label %28

28:                                               ; preds = %26, %7
  %29 = load i64, ptr %2, align 8
  ret i64 %29
}

; Function Attrs: mustprogress nounwind uwtable
define linkonce_odr hidden noundef i64 @_ZNK4llvm18BinaryStreamReader9getLengthEv(ptr noundef nonnull align 8 dereferenceable(64) %0) #0 comdat align 2 {
  %2 = alloca ptr, align 8
  store ptr %0, ptr %2, align 8
  %3 = load ptr, ptr %2, align 8
  %4 = getelementptr inbounds nuw %"class.llvm::BinaryStreamReader", ptr %3, i32 0, i32 1
  %5 = call noundef i64 @_ZNK4llvm19BinaryStreamRefBaseINS_15BinaryStreamRefENS_12BinaryStreamEE9getLengthEv(ptr noundef nonnull align 8 dereferenceable(48) %4)
  ret i64 %5
}

; Function Attrs: mustprogress nounwind uwtable
define dso_local void @_ZN4llvm8codeview25DebugSymbolsSubsectionRef10initializeENS_18BinaryStreamReaderE(ptr dead_on_unwind noalias writable sret(%"class.llvm::Error") align 8 %0, ptr noundef nonnull align 8 dereferenceable(72) %1, ptr noundef %2) #0 align 2 {
  %4 = alloca ptr, align 8
  %5 = alloca ptr, align 8
  %6 = alloca ptr, align 8
  store ptr %0, ptr %4, align 8
  store ptr %1, ptr %5, align 8
  store ptr %2, ptr %6, align 8
  %7 = load ptr, ptr %5, align 8
  %8 = getelementptr inbounds nuw %"class.llvm::codeview::DebugSymbolsSubsectionRef", ptr %7, i32 0, i32 1
  %9 = call noundef i64 @_ZNK4llvm18BinaryStreamReader9getLengthEv(ptr noundef nonnull align 8 dereferenceable(64) %2)
  %10 = trunc i64 %9 to i32
  call void @_ZN4llvm18BinaryStreamReader9readArrayINS_8codeview8CVRecordINS2_10SymbolKindEEENS_23VarStreamArrayExtractorIS5_EEEENS_5ErrorERNS_14VarStreamArrayIT_T0_EEjj(ptr dead_on_unwind writable sret(%"class.llvm::Error") align 8 %0, ptr noundef nonnull align 8 dereferenceable(64) %2, ptr noundef nonnull align 8 dereferenceable(56) %8, i32 noundef %10, i32 noundef 0)
  ret void
}