; Function Attrs: mustprogress nounwind uwtable
define dso_local void @_ZN4llvm8codeview25DebugSymbolsSubsectionRef10initializeENS_18BinaryStreamReaderE(ptr dead_on_unwind noalias writable sret(%"class.llvm::Error") align 8 %0, ptr noundef nonnull align 8 dereferenceable(72) %1, ptr noundef %2) local_unnamed_addr #0 align 2 {
  %4 = getelementptr inbounds i8, ptr %2, i64 48
  %5 = load i8, ptr %4, align 8
  %6 = trunc i8 %5 to i1
  br i1 %6, label %7, label %10

7:                                                ; preds = %3
  %8 = getelementptr inbounds i8, ptr %2, i64 40
  %9 = load i64, ptr %8, align 8
  br label %_ZNK4llvm18BinaryStreamReader9getLengthEv.exit

10:                                               ; preds = %3
  %11 = getelementptr inbounds i8, ptr %2, i64 24
  %12 = load ptr, ptr %11, align 8
  %.not.i.i = icmp eq ptr %12, null
  br i1 %.not.i.i, label %_ZNK4llvm18BinaryStreamReader9getLengthEv.exit, label %13

13:                                               ; preds = %10
  %14 = load ptr, ptr %12, align 8
  %15 = getelementptr inbounds i8, ptr %14, i64 40
  %16 = load ptr, ptr %15, align 8
  %17 = tail call noundef i64 %16(ptr noundef nonnull align 8 dereferenceable(8) %12) #10
  %18 = getelementptr inbounds i8, ptr %2, i64 32
  %19 = load i64, ptr %18, align 8
  %20 = sub i64 %17, %19
  br label %_ZNK4llvm18BinaryStreamReader9getLengthEv.exit

_ZNK4llvm18BinaryStreamReader9getLengthEv.exit:   ; preds = %7, %10, %13
  %.0.i.i = phi i64 [ %9, %7 ], [ %20, %13 ], [ 0, %10 ]
  %21 = getelementptr inbounds nuw i8, ptr %1, i64 16
  %22 = trunc i64 %.0.i.i to i32
  tail call void @_ZN4llvm18BinaryStreamReader9readArrayINS_8codeview8CVRecordINS2_10SymbolKindEEENS_23VarStreamArrayExtractorIS5_EEEENS_5ErrorERNS_14VarStreamArrayIT_T0_EEjj(ptr dead_on_unwind writable sret(%"class.llvm::Error") align 8 %0, ptr noundef nonnull align 8 dereferenceable(64) %2, ptr noundef nonnull align 8 dereferenceable(56) %21, i32 noundef %22, i32 noundef 0)
  ret void
}